target datalayout = "e-m:e-p270:32:32-p271:32:32-p272:64:64-i64:64-i128:128-f80:128-n8:16:32:64-S128"
target triple = "x86_64-pc-linux-gnu"

%struct.anon = type { i64, double, double, double, double, double }
%struct._generic_SUNMatrix = type { ptr, ptr, ptr }
%struct._SUNMatrixContent_Band = type { i64, i64, i64, i64, i64, i64, ptr, i64, ptr }

@.str.10 = private unnamed_addr constant [19 x i8] c"N_VGetArrayPointer\00", align 1
@stderr = external global ptr, align 8
@.str.53 = private unnamed_addr constant [55 x i8] c"\0ASUNDIALS_ERROR: %s() failed - returned NULL pointer\0A\0A\00", align 1
@.str.54 = private unnamed_addr constant [46 x i8] c"\0ASUNDIALS_ERROR: %s() failed with flag = %d\0A\0A\00", align 1
@.str.55 = private unnamed_addr constant [53 x i8] c"\0AMEMORY_ERROR: %s() failed - returned NULL pointer\0A\0A\00", align 1

; Function Attrs: nounwind uwtable
define internal i32 @check_retval(ptr noundef %0, ptr noundef %1, i32 noundef %2) #0 {
  %4 = alloca i32, align 4
  %5 = alloca ptr, align 8
  %6 = alloca ptr, align 8
  %7 = alloca i32, align 4
  %8 = alloca ptr, align 8
  %9 = alloca i32, align 4
  store ptr %0, ptr %5, align 8, !tbaa !21
  store ptr %1, ptr %6, align 8, !tbaa !37
  store i32 %2, ptr %7, align 4, !tbaa !4
  call void @llvm.lifetime.start.p0(i64 8, ptr %8) #6
  %10 = load i32, ptr %7, align 4, !tbaa !4
  %11 = icmp eq i32 %10, 0
  br i1 %11, label %12, label %19

12:                                               ; preds = %3
  %13 = load ptr, ptr %5, align 8, !tbaa !21
  %14 = icmp eq ptr %13, null
  br i1 %14, label %15, label %19

15:                                               ; preds = %12
  %16 = load ptr, ptr @stderr, align 8, !tbaa !35
  %17 = load ptr, ptr %6, align 8, !tbaa !37
  %18 = call i32 (ptr, ptr, ...) @fprintf(ptr noundef %16, ptr noundef @.str.53, ptr noundef %17) #6
  store i32 1, ptr %4, align 4
  store i32 1, ptr %9, align 4
  br label %47

19:                                               ; preds = %12, %3
  %20 = load i32, ptr %7, align 4, !tbaa !4
  %21 = icmp eq i32 %20, 1
  br i1 %21, label %22, label %34

22:                                               ; preds = %19
  %23 = load ptr, ptr %5, align 8, !tbaa !21
  store ptr %23, ptr %8, align 8, !tbaa !39
  %24 = load ptr, ptr %8, align 8, !tbaa !39
  %25 = load i32, ptr %24, align 4, !tbaa !4
  %26 = icmp slt i32 %25, 0
  br i1 %26, label %27, label %33

27:                                               ; preds = %22
  %28 = load ptr, ptr @stderr, align 8, !tbaa !35
  %29 = load ptr, ptr %6, align 8, !tbaa !37
  %30 = load ptr, ptr %8, align 8, !tbaa !39
  %31 = load i32, ptr %30, align 4, !tbaa !4
  %32 = call i32 (ptr, ptr, ...) @fprintf(ptr noundef %28, ptr noundef @.str.54, ptr noundef %29, i32 noundef %31) #6
  store i32 1, ptr %4, align 4
  store i32 1, ptr %9, align 4
  br label %47

33:                                               ; preds = %22
  br label %45

34:                                               ; preds = %19
  %35 = load i32, ptr %7, align 4, !tbaa !4
  %36 = icmp eq i32 %35, 2
  br i1 %36, label %37, label %44

37:                                               ; preds = %34
  %38 = load ptr, ptr %5, align 8, !tbaa !21
  %39 = icmp eq ptr %38, null
  br i1 %39, label %40, label %44

40:                                               ; preds = %37
  %41 = load ptr, ptr @stderr, align 8, !tbaa !35
  %42 = load ptr, ptr %6, align 8, !tbaa !37
  %43 = call i32 (ptr, ptr, ...) @fprintf(ptr noundef %41, ptr noundef @.str.55, ptr noundef %42) #6
  store i32 1, ptr %4, align 4
  store i32 1, ptr %9, align 4
  br label %47

44:                                               ; preds = %37, %34
  br label %45

45:                                               ; preds = %44, %33
  br label %46

46:                                               ; preds = %45
  store i32 0, ptr %4, align 4
  store i32 1, ptr %9, align 4
  br label %47

47:                                               ; preds = %46, %40, %27, %15
  call void @llvm.lifetime.end.p0(i64 8, ptr %8) #6
  %48 = load i32, ptr %4, align 4
  ret i32 %48
}

; Function Attrs: nounwind uwtable
define internal i32 @Jf(double noundef %0, ptr noundef %1, ptr noundef %2, ptr noundef %3, ptr noundef %4, ptr noundef %5, ptr noundef %6, ptr noundef %7) #0 {
  %9 = alloca i32, align 4
  %10 = alloca double, align 8
  %11 = alloca ptr, align 8
  %12 = alloca ptr, align 8
  %13 = alloca ptr, align 8
  %14 = alloca ptr, align 8
  %15 = alloca ptr, align 8
  %16 = alloca ptr, align 8
  %17 = alloca ptr, align 8
  %18 = alloca ptr, align 8
  %19 = alloca i64, align 8
  %20 = alloca double, align 8
  %21 = alloca i64, align 8
  %22 = alloca double, align 8
  %23 = alloca double, align 8
  %24 = alloca double, align 8
  %25 = alloca ptr, align 8
  %26 = alloca i32, align 4
  store double %0, ptr %10, align 8, !tbaa !11
  store ptr %1, ptr %11, align 8, !tbaa !15
  store ptr %2, ptr %12, align 8, !tbaa !15
  store ptr %3, ptr %13, align 8, !tbaa !17
  store ptr %4, ptr %14, align 8, !tbaa !21
  store ptr %5, ptr %15, align 8, !tbaa !15
  store ptr %6, ptr %16, align 8, !tbaa !15
  store ptr %7, ptr %17, align 8, !tbaa !15
  call void @llvm.lifetime.start.p0(i64 8, ptr %18) #6
  %27 = load ptr, ptr %14, align 8, !tbaa !21
  store ptr %27, ptr %18, align 8, !tbaa !21
  call void @llvm.lifetime.start.p0(i64 8, ptr %19) #6
  %28 = load ptr, ptr %18, align 8, !tbaa !21
  %29 = getelementptr inbounds nuw %struct.anon, ptr %28, i32 0, i32 0
  %30 = load i64, ptr %29, align 8, !tbaa !26
  store i64 %30, ptr %19, align 8, !tbaa !13
  call void @llvm.lifetime.start.p0(i64 8, ptr %20) #6
  %31 = load ptr, ptr %18, align 8, !tbaa !21
  %32 = getelementptr inbounds nuw %struct.anon, ptr %31, i32 0, i32 5
  %33 = load double, ptr %32, align 8, !tbaa !31
  store double %33, ptr %20, align 8, !tbaa !11
  call void @llvm.lifetime.start.p0(i64 8, ptr %21) #6
  call void @llvm.lifetime.start.p0(i64 8, ptr %22) #6
  call void @llvm.lifetime.start.p0(i64 8, ptr %23) #6
  call void @llvm.lifetime.start.p0(i64 8, ptr %24) #6
  call void @llvm.lifetime.start.p0(i64 8, ptr %25) #6
  store ptr null, ptr %25, align 8, !tbaa !24
  %34 = load ptr, ptr %11, align 8, !tbaa !15
  %35 = call ptr @N_VGetArrayPointer(ptr noundef %34)
  store ptr %35, ptr %25, align 8, !tbaa !24
  %36 = load ptr, ptr %25, align 8, !tbaa !24
  %37 = call i32 @check_retval(ptr noundef %36, ptr noundef @.str.10, i32 noundef 0)
  %38 = icmp ne i32 %37, 0
  br i1 %38, label %39, label %40

39:                                               ; preds = %8
  store i32 1, ptr %9, align 4
  store i32 1, ptr %26, align 4
  br label %289

40:                                               ; preds = %8
  store i64 0, ptr %21, align 8, !tbaa !13
  br label %41

41:                                               ; preds = %285, %40
  %42 = load i64, ptr %21, align 8, !tbaa !13
  %43 = load i64, ptr %19, align 8, !tbaa !13
  %44 = icmp slt i64 %42, %43
  br i1 %44, label %45, label %288

45:                                               ; preds = %41
  %46 = load ptr, ptr %25, align 8, !tbaa !24
  %47 = load i64, ptr %21, align 8, !tbaa !13
  %48 = mul nsw i64 3, %47
  %49 = add nsw i64 %48, 0
  %50 = getelementptr inbounds double, ptr %46, i64 %49
  %51 = load double, ptr %50, align 8, !tbaa !11
  store double %51, ptr %22, align 8, !tbaa !11
  %52 = load ptr, ptr %25, align 8, !tbaa !24
  %53 = load i64, ptr %21, align 8, !tbaa !13
  %54 = mul nsw i64 3, %53
  %55 = add nsw i64 %54, 1
  %56 = getelementptr inbounds double, ptr %52, i64 %55
  %57 = load double, ptr %56, align 8, !tbaa !11
  store double %57, ptr %23, align 8, !tbaa !11
  %58 = load ptr, ptr %25, align 8, !tbaa !24
  %59 = load i64, ptr %21, align 8, !tbaa !13
  %60 = mul nsw i64 3, %59
  %61 = add nsw i64 %60, 2
  %62 = getelementptr inbounds double, ptr %58, i64 %61
  %63 = load double, ptr %62, align 8, !tbaa !11
  store double %63, ptr %24, align 8, !tbaa !11
  %64 = load double, ptr %22, align 8, !tbaa !11
  %65 = fmul double 2.000000e+00, %64
  %66 = load double, ptr %23, align 8, !tbaa !11
  %67 = load double, ptr %24, align 8, !tbaa !11
  %68 = fadd double %67, 1.000000e+00
  %69 = fneg double %68
  %70 = call double @llvm.fmuladd.f64(double %65, double %66, double %69)
  %71 = load ptr, ptr %13, align 8, !tbaa !17
  %72 = getelementptr inbounds nuw %struct._generic_SUNMatrix, ptr %71, i32 0, i32 0
  %73 = load ptr, ptr %72, align 8, !tbaa !41
  %74 = getelementptr inbounds nuw %struct._SUNMatrixContent_Band, ptr %73, i32 0, i32 8
  %75 = load ptr, ptr %74, align 8, !tbaa !44
  %76 = load i64, ptr %21, align 8, !tbaa !13
  %77 = mul nsw i64 3, %76
  %78 = add nsw i64 %77, 0
  %79 = getelementptr inbounds ptr, ptr %75, i64 %78
  %80 = load ptr, ptr %79, align 8, !tbaa !24
  %81 = load i64, ptr %21, align 8, !tbaa !13
  %82 = mul nsw i64 3, %81
  %83 = add nsw i64 %82, 0
  %84 = load i64, ptr %21, align 8, !tbaa !13
  %85 = mul nsw i64 3, %84
  %86 = add nsw i64 %85, 0
  %87 = sub nsw i64 %83, %86
  %88 = load ptr, ptr %13, align 8, !tbaa !17
  %89 = getelementptr inbounds nuw %struct._generic_SUNMatrix, ptr %88, i32 0, i32 0
  %90 = load ptr, ptr %89, align 8, !tbaa !41
  %91 = getelementptr inbounds nuw %struct._SUNMatrixContent_Band, ptr %90, i32 0, i32 5
  %92 = load i64, ptr %91, align 8, !tbaa !47
  %93 = add nsw i64 %87, %92
  %94 = getelementptr inbounds double, ptr %80, i64 %93
  store double %70, ptr %94, align 8, !tbaa !11
  %95 = load double, ptr %24, align 8, !tbaa !11
  %96 = load double, ptr %22, align 8, !tbaa !11
  %97 = fmul double 2.000000e+00, %96
  %98 = load double, ptr %23, align 8, !tbaa !11
  %99 = fneg double %97
  %100 = call double @llvm.fmuladd.f64(double %99, double %98, double %95)
  %101 = load ptr, ptr %13, align 8, !tbaa !17
  %102 = getelementptr inbounds nuw %struct._generic_SUNMatrix, ptr %101, i32 0, i32 0
  %103 = load ptr, ptr %102, align 8, !tbaa !41
  %104 = getelementptr inbounds nuw %struct._SUNMatrixContent_Band, ptr %103, i32 0, i32 8
  %105 = load ptr, ptr %104, align 8, !tbaa !44
  %106 = load i64, ptr %21, align 8, !tbaa !13
  %107 = mul nsw i64 3, %106
  %108 = add nsw i64 %107, 0
  %109 = getelementptr inbounds ptr, ptr %105, i64 %108
  %110 = load ptr, ptr %109, align 8, !tbaa !24
  %111 = load i64, ptr %21, align 8, !tbaa !13
  %112 = mul nsw i64 3, %111
  %113 = add nsw i64 %112, 1
  %114 = load i64, ptr %21, align 8, !tbaa !13
  %115 = mul nsw i64 3, %114
  %116 = add nsw i64 %115, 0
  %117 = sub nsw i64 %113, %116
  %118 = load ptr, ptr %13, align 8, !tbaa !17
  %119 = getelementptr inbounds nuw %struct._generic_SUNMatrix, ptr %118, i32 0, i32 0
  %120 = load ptr, ptr %119, align 8, !tbaa !41
  %121 = getelementptr inbounds nuw %struct._SUNMatrixContent_Band, ptr %120, i32 0, i32 5
  %122 = load i64, ptr %121, align 8, !tbaa !47
  %123 = add nsw i64 %117, %122
  %124 = getelementptr inbounds double, ptr %110, i64 %123
  store double %100, ptr %124, align 8, !tbaa !11
  %125 = load double, ptr %24, align 8, !tbaa !11
  %126 = fneg double %125
  %127 = load ptr, ptr %13, align 8, !tbaa !17
  %128 = getelementptr inbounds nuw %struct._generic_SUNMatrix, ptr %127, i32 0, i32 0
  %129 = load ptr, ptr %128, align 8, !tbaa !41
  %130 = getelementptr inbounds nuw %struct._SUNMatrixContent_Band, ptr %129, i32 0, i32 8
  %131 = load ptr, ptr %130, align 8, !tbaa !44
  %132 = load i64, ptr %21, align 8, !tbaa !13
  %133 = mul nsw i64 3, %132
  %134 = add nsw i64 %133, 0
  %135 = getelementptr inbounds ptr, ptr %131, i64 %134
  %136 = load ptr, ptr %135, align 8, !tbaa !24
  %137 = load i64, ptr %21, align 8, !tbaa !13
  %138 = mul nsw i64 3, %137
  %139 = add nsw i64 %138, 2
  %140 = load i64, ptr %21, align 8, !tbaa !13
  %141 = mul nsw i64 3, %140
  %142 = add nsw i64 %141, 0
  %143 = sub nsw i64 %139, %142
  %144 = load ptr, ptr %13, align 8, !tbaa !17
  %145 = getelementptr inbounds nuw %struct._generic_SUNMatrix, ptr %144, i32 0, i32 0
  %146 = load ptr, ptr %145, align 8, !tbaa !41
  %147 = getelementptr inbounds nuw %struct._SUNMatrixContent_Band, ptr %146, i32 0, i32 5
  %148 = load i64, ptr %147, align 8, !tbaa !47
  %149 = add nsw i64 %143, %148
  %150 = getelementptr inbounds double, ptr %136, i64 %149
  store double %126, ptr %150, align 8, !tbaa !11
  %151 = load double, ptr %22, align 8, !tbaa !11
  %152 = load double, ptr %22, align 8, !tbaa !11
  %153 = fmul double %151, %152
  %154 = load ptr, ptr %13, align 8, !tbaa !17
  %155 = getelementptr inbounds nuw %struct._generic_SUNMatrix, ptr %154, i32 0, i32 0
  %156 = load ptr, ptr %155, align 8, !tbaa !41
  %157 = getelementptr inbounds nuw %struct._SUNMatrixContent_Band, ptr %156, i32 0, i32 8
  %158 = load ptr, ptr %157, align 8, !tbaa !44
  %159 = load i64, ptr %21, align 8, !tbaa !13
  %160 = mul nsw i64 3, %159
  %161 = add nsw i64 %160, 1
  %162 = getelementptr inbounds ptr, ptr %158, i64 %161
  %163 = load ptr, ptr %162, align 8, !tbaa !24
  %164 = load i64, ptr %21, align 8, !tbaa !13
  %165 = mul nsw i64 3, %164
  %166 = add nsw i64 %165, 0
  %167 = load i64, ptr %21, align 8, !tbaa !13
  %168 = mul nsw i64 3, %167
  %169 = add nsw i64 %168, 1
  %170 = sub nsw i64 %166, %169
  %171 = load ptr, ptr %13, align 8, !tbaa !17
  %172 = getelementptr inbounds nuw %struct._generic_SUNMatrix, ptr %171, i32 0, i32 0
  %173 = load ptr, ptr %172, align 8, !tbaa !41
  %174 = getelementptr inbounds nuw %struct._SUNMatrixContent_Band, ptr %173, i32 0, i32 5
  %175 = load i64, ptr %174, align 8, !tbaa !47
  %176 = add nsw i64 %170, %175
  %177 = getelementptr inbounds double, ptr %163, i64 %176
  store double %153, ptr %177, align 8, !tbaa !11
  %178 = load double, ptr %22, align 8, !tbaa !11
  %179 = fneg double %178
  %180 = load double, ptr %22, align 8, !tbaa !11
  %181 = fmul double %179, %180
  %182 = load ptr, ptr %13, align 8, !tbaa !17
  %183 = getelementptr inbounds nuw %struct._generic_SUNMatrix, ptr %182, i32 0, i32 0
  %184 = load ptr, ptr %183, align 8, !tbaa !41
  %185 = getelementptr inbounds nuw %struct._SUNMatrixContent_Band, ptr %184, i32 0, i32 8
  %186 = load ptr, ptr %185, align 8, !tbaa !44
  %187 = load i64, ptr %21, align 8, !tbaa !13
  %188 = mul nsw i64 3, %187
  %189 = add nsw i64 %188, 1
  %190 = getelementptr inbounds ptr, ptr %186, i64 %189
  %191 = load ptr, ptr %190, align 8, !tbaa !24
  %192 = load i64, ptr %21, align 8, !tbaa !13
  %193 = mul nsw i64 3, %192
  %194 = add nsw i64 %193, 1
  %195 = load i64, ptr %21, align 8, !tbaa !13
  %196 = mul nsw i64 3, %195
  %197 = add nsw i64 %196, 1
  %198 = sub nsw i64 %194, %197
  %199 = load ptr, ptr %13, align 8, !tbaa !17
  %200 = getelementptr inbounds nuw %struct._generic_SUNMatrix, ptr %199, i32 0, i32 0
  %201 = load ptr, ptr %200, align 8, !tbaa !41
  %202 = getelementptr inbounds nuw %struct._SUNMatrixContent_Band, ptr %201, i32 0, i32 5
  %203 = load i64, ptr %202, align 8, !tbaa !47
  %204 = add nsw i64 %198, %203
  %205 = getelementptr inbounds double, ptr %191, i64 %204
  store double %181, ptr %205, align 8, !tbaa !11
  %206 = load double, ptr %22, align 8, !tbaa !11
  %207 = fneg double %206
  %208 = load ptr, ptr %13, align 8, !tbaa !17
  %209 = getelementptr inbounds nuw %struct._generic_SUNMatrix, ptr %208, i32 0, i32 0
  %210 = load ptr, ptr %209, align 8, !tbaa !41
  %211 = getelementptr inbounds nuw %struct._SUNMatrixContent_Band, ptr %210, i32 0, i32 8
  %212 = load ptr, ptr %211, align 8, !tbaa !44
  %213 = load i64, ptr %21, align 8, !tbaa !13
  %214 = mul nsw i64 3, %213
  %215 = add nsw i64 %214, 2
  %216 = getelementptr inbounds ptr, ptr %212, i64 %215
  %217 = load ptr, ptr %216, align 8, !tbaa !24
  %218 = load i64, ptr %21, align 8, !tbaa !13
  %219 = mul nsw i64 3, %218
  %220 = add nsw i64 %219, 0
  %221 = load i64, ptr %21, align 8, !tbaa !13
  %222 = mul nsw i64 3, %221
  %223 = add nsw i64 %222, 2
  %224 = sub nsw i64 %220, %223
  %225 = load ptr, ptr %13, align 8, !tbaa !17
  %226 = getelementptr inbounds nuw %struct._generic_SUNMatrix, ptr %225, i32 0, i32 0
  %227 = load ptr, ptr %226, align 8, !tbaa !41
  %228 = getelementptr inbounds nuw %struct._SUNMatrixContent_Band, ptr %227, i32 0, i32 5
  %229 = load i64, ptr %228, align 8, !tbaa !47
  %230 = add nsw i64 %224, %229
  %231 = getelementptr inbounds double, ptr %217, i64 %230
  store double %207, ptr %231, align 8, !tbaa !11
  %232 = load double, ptr %22, align 8, !tbaa !11
  %233 = load ptr, ptr %13, align 8, !tbaa !17
  %234 = getelementptr inbounds nuw %struct._generic_SUNMatrix, ptr %233, i32 0, i32 0
  %235 = load ptr, ptr %234, align 8, !tbaa !41
  %236 = getelementptr inbounds nuw %struct._SUNMatrixContent_Band, ptr %235, i32 0, i32 8
  %237 = load ptr, ptr %236, align 8, !tbaa !44
  %238 = load i64, ptr %21, align 8, !tbaa !13
  %239 = mul nsw i64 3, %238
  %240 = add nsw i64 %239, 2
  %241 = getelementptr inbounds ptr, ptr %237, i64 %240
  %242 = load ptr, ptr %241, align 8, !tbaa !24
  %243 = load i64, ptr %21, align 8, !tbaa !13
  %244 = mul nsw i64 3, %243
  %245 = add nsw i64 %244, 1
  %246 = load i64, ptr %21, align 8, !tbaa !13
  %247 = mul nsw i64 3, %246
  %248 = add nsw i64 %247, 2
  %249 = sub nsw i64 %245, %248
  %250 = load ptr, ptr %13, align 8, !tbaa !17
  %251 = getelementptr inbounds nuw %struct._generic_SUNMatrix, ptr %250, i32 0, i32 0
  %252 = load ptr, ptr %251, align 8, !tbaa !41
  %253 = getelementptr inbounds nuw %struct._SUNMatrixContent_Band, ptr %252, i32 0, i32 5
  %254 = load i64, ptr %253, align 8, !tbaa !47
  %255 = add nsw i64 %249, %254
  %256 = getelementptr inbounds double, ptr %242, i64 %255
  store double %232, ptr %256, align 8, !tbaa !11
  %257 = load double, ptr %20, align 8, !tbaa !11
  %258 = fdiv double -1.000000e+00, %257
  %259 = load double, ptr %22, align 8, !tbaa !11
  %260 = fsub double %258, %259
  %261 = load ptr, ptr %13, align 8, !tbaa !17
  %262 = getelementptr inbounds nuw %struct._generic_SUNMatrix, ptr %261, i32 0, i32 0
  %263 = load ptr, ptr %262, align 8, !tbaa !41
  %264 = getelementptr inbounds nuw %struct._SUNMatrixContent_Band, ptr %263, i32 0, i32 8
  %265 = load ptr, ptr %264, align 8, !tbaa !44
  %266 = load i64, ptr %21, align 8, !tbaa !13
  %267 = mul nsw i64 3, %266
  %268 = add nsw i64 %267, 2
  %269 = getelementptr inbounds ptr, ptr %265, i64 %268
  %270 = load ptr, ptr %269, align 8, !tbaa !24
  %271 = load i64, ptr %21, align 8, !tbaa !13
  %272 = mul nsw i64 3, %271
  %273 = add nsw i64 %272, 2
  %274 = load i64, ptr %21, align 8, !tbaa !13
  %275 = mul nsw i64 3, %274
  %276 = add nsw i64 %275, 2
  %277 = sub nsw i64 %273, %276
  %278 = load ptr, ptr %13, align 8, !tbaa !17
  %279 = getelementptr inbounds nuw %struct._generic_SUNMatrix, ptr %278, i32 0, i32 0
  %280 = load ptr, ptr %279, align 8, !tbaa !41
  %281 = getelementptr inbounds nuw %struct._SUNMatrixContent_Band, ptr %280, i32 0, i32 5
  %282 = load i64, ptr %281, align 8, !tbaa !47
  %283 = add nsw i64 %277, %282
  %284 = getelementptr inbounds double, ptr %270, i64 %283
  store double %260, ptr %284, align 8, !tbaa !11
  br label %285

285:                                              ; preds = %45
  %286 = load i64, ptr %21, align 8, !tbaa !13
  %287 = add nsw i64 %286, 1
  store i64 %287, ptr %21, align 8, !tbaa !13
  br label %41

288:                                              ; preds = %41
  store i32 0, ptr %9, align 4
  store i32 1, ptr %26, align 4
  br label %289

289:                                              ; preds = %288, %39
  call void @llvm.lifetime.end.p0(i64 8, ptr %25) #6
  call void @llvm.lifetime.end.p0(i64 8, ptr %24) #6
  call void @llvm.lifetime.end.p0(i64 8, ptr %23) #6
  call void @llvm.lifetime.end.p0(i64 8, ptr %22) #6
  call void @llvm.lifetime.end.p0(i64 8, ptr %21) #6
  call void @llvm.lifetime.end.p0(i64 8, ptr %20) #6
  call void @llvm.lifetime.end.p0(i64 8, ptr %19) #6
  call void @llvm.lifetime.end.p0(i64 8, ptr %18) #6
  %290 = load i32, ptr %9, align 4
  ret i32 %290
}