; Function Attrs: nounwind uwtable
define internal range(i32 0, 2) i32 @Jf(double %0, ptr noundef %1, ptr readnone captures(none) %2, ptr noundef readonly captures(none) %3, ptr noundef readonly captures(none) %4, ptr readnone captures(none) %5, ptr readnone captures(none) %6, ptr readnone captures(none) %7) #0 {
  %9 = load i64, ptr %4, align 8, !tbaa !12
  %10 = getelementptr inbounds nuw i8, ptr %4, i64 40
  %11 = load double, ptr %10, align 8, !tbaa !19
  %12 = tail call ptr @N_VGetArrayPointer(ptr noundef %1) #10
  %13 = icmp eq ptr %12, null
  br i1 %13, label %check_retval.exit.thread, label %check_retval.exit.preheader

check_retval.exit.preheader:                      ; preds = %8
  %14 = icmp sgt i64 %9, 0
  br i1 %14, label %.lr.ph, label %.loopexit

.lr.ph:                                           ; preds = %check_retval.exit.preheader
  %15 = load ptr, ptr %3, align 8, !tbaa !27
  %16 = getelementptr inbounds nuw i8, ptr %15, i64 64
  %17 = load ptr, ptr %16, align 8, !tbaa !30
  %18 = getelementptr inbounds nuw i8, ptr %15, i64 40
  %19 = load i64, ptr %18, align 8, !tbaa !34
  %20 = fdiv double -1.000000e+00, %11
  br label %check_retval.exit

check_retval.exit.thread:                         ; preds = %8
  %21 = load ptr, ptr @stderr, align 8, !tbaa !10
  %22 = tail call i32 (ptr, ptr, ...) @fprintf(ptr noundef %21, ptr noundef nonnull @.str.53, ptr noundef nonnull @.str.10) #11
  br label %.loopexit

check_retval.exit:                                ; preds = %.lr.ph, %check_retval.exit
  %.06972 = phi i64 [ 0, %.lr.ph ], [ %57, %check_retval.exit ]
  %23 = mul nuw nsw i64 %.06972, 3
  %24 = getelementptr inbounds nuw double, ptr %12, i64 %23
  %25 = load double, ptr %24, align 8, !tbaa !25
  %26 = add nuw nsw i64 %23, 1
  %27 = getelementptr inbounds nuw double, ptr %12, i64 %26
  %28 = load double, ptr %27, align 8, !tbaa !25
  %29 = add nuw nsw i64 %23, 2
  %30 = getelementptr inbounds nuw double, ptr %12, i64 %29
  %31 = load double, ptr %30, align 8, !tbaa !25
  %32 = fmul double %25, 2.000000e+00
  %33 = fadd double %31, 1.000000e+00
  %34 = fneg double %33
  %35 = tail call double @llvm.fmuladd.f64(double %32, double %28, double %34)
  %36 = getelementptr inbounds nuw ptr, ptr %17, i64 %23
  %37 = load ptr, ptr %36, align 8, !tbaa !35
  %38 = getelementptr inbounds double, ptr %37, i64 %19
  store double %35, ptr %38, align 8, !tbaa !25
  %39 = fneg double %32
  %40 = tail call double @llvm.fmuladd.f64(double %39, double %28, double %31)
  %41 = getelementptr i8, ptr %38, i64 8
  store double %40, ptr %41, align 8, !tbaa !25
  %42 = fneg double %31
  %43 = getelementptr i8, ptr %38, i64 16
  store double %42, ptr %43, align 8, !tbaa !25
  %44 = fmul double %25, %25
  %45 = getelementptr inbounds nuw ptr, ptr %17, i64 %26
  %46 = load ptr, ptr %45, align 8, !tbaa !35
  %47 = getelementptr double, ptr %46, i64 %19
  %48 = getelementptr i8, ptr %47, i64 -8
  store double %44, ptr %48, align 8, !tbaa !25
  %49 = fneg double %25
  %50 = fmul double %25, %49
  store double %50, ptr %47, align 8, !tbaa !25
  %51 = getelementptr inbounds nuw ptr, ptr %17, i64 %29
  %52 = load ptr, ptr %51, align 8, !tbaa !35
  %53 = getelementptr double, ptr %52, i64 %19
  %54 = getelementptr i8, ptr %53, i64 -16
  store double %49, ptr %54, align 8, !tbaa !25
  %55 = getelementptr i8, ptr %53, i64 -8
  store double %25, ptr %55, align 8, !tbaa !25
  %56 = fsub double %20, %25
  store double %56, ptr %53, align 8, !tbaa !25
  %57 = add nuw nsw i64 %.06972, 1
  %exitcond.not = icmp eq i64 %57, %9
  br i1 %exitcond.not, label %.loopexit, label %check_retval.exit

.loopexit:                                        ; preds = %check_retval.exit, %check_retval.exit.preheader, %check_retval.exit.thread
  %.0 = phi i32 [ 1, %check_retval.exit.thread ], [ 0, %check_retval.exit.preheader ], [ 0, %check_retval.exit ]
  ret i32 %.0
}